target datalayout = "e-m:e-p270:32:32-p271:32:32-p272:64:64-i64:64-i128:128-f80:128-n8:16:32:64-S128"
target triple = "x86_64-unknown-linux-gnu"

%"class.llvh::SMRange" = type { %"class.llvh::SMLoc", %"class.llvh::SMLoc" }
%"class.llvh::SMLoc" = type { ptr }
%"class.llvh::ArrayRef" = type { ptr, i64 }
%"class.llvh::StringRef" = type { ptr, i64 }
%"class.hermes::parser::StoredComment" = type { i32, %"class.llvh::SMRange" }
%"class.std::__cxx11::basic_string" = type { %"struct.std::__cxx11::basic_string<char>::_Alloc_hider", i64, %union.anon }
%"struct.std::__cxx11::basic_string<char>::_Alloc_hider" = type { ptr }
%union.anon = type { i64, [8 x i8] }

; Function Attrs: mustprogress nounwind uwtable
define linkonce_odr hidden noundef ptr @_ZNK4llvh5SMLoc10getPointerEv(ptr noundef nonnull align 8 dereferenceable(8) %this) #0 comdat align 2 {
entry:
  %this.addr = alloca ptr, align 8
  store ptr %this, ptr %this.addr, align 8
  %this1 = load ptr, ptr %this.addr, align 8
  %Ptr = getelementptr inbounds %"class.llvh::SMLoc", ptr %this1, i32 0, i32 0
  %0 = load ptr, ptr %Ptr, align 8
  ret ptr %0
}

; Function Attrs: mustprogress nounwind uwtable
define linkonce_odr hidden noundef nonnull align 8 dereferenceable(32) ptr @_ZN4llvhpLERNSt7__cxx1112basic_stringIcSt11char_traitsIcESaIcEEENS_9StringRefE(ptr noundef nonnull align 8 dereferenceable(32) %buffer, ptr %string.coerce0, i64 %string.coerce1) #0 comdat {
entry:
  %this.addr.i3 = alloca ptr, align 8
  %this.addr.i = alloca ptr, align 8
  %string = alloca %"class.llvh::StringRef", align 8
  %buffer.addr = alloca ptr, align 8
  %0 = getelementptr inbounds { ptr, i64 }, ptr %string, i32 0, i32 0
  store ptr %string.coerce0, ptr %0, align 8
  %1 = getelementptr inbounds { ptr, i64 }, ptr %string, i32 0, i32 1
  store i64 %string.coerce1, ptr %1, align 8
  store ptr %buffer, ptr %buffer.addr, align 8
  %2 = load ptr, ptr %buffer.addr, align 8
  store ptr %string, ptr %this.addr.i3, align 8
  %this1.i4 = load ptr, ptr %this.addr.i3, align 8
  %3 = load ptr, ptr %this1.i4, align 8
  store ptr %string, ptr %this.addr.i, align 8
  %this1.i = load ptr, ptr %this.addr.i, align 8
  %Length.i = getelementptr inbounds %"class.llvh::StringRef", ptr %this1.i, i32 0, i32 1
  %4 = load i64, ptr %Length.i, align 8
  %call2 = call noundef nonnull align 8 dereferenceable(32) ptr @_ZNSt7__cxx1112basic_stringIcSt11char_traitsIcESaIcEE6appendEPKcm(ptr noundef nonnull align 8 dereferenceable(32) %2, ptr noundef %3, i64 noundef %4)
  ret ptr %call2
}

; Function Attrs: mustprogress nounwind uwtable
define linkonce_odr hidden { ptr, i64 } @_ZNK6hermes6parser13StoredComment13getFullStringEv(ptr noundef nonnull align 8 dereferenceable(24) %this) #0 comdat align 2 {
entry:
  %this.addr.i = alloca ptr, align 8
  %data.addr.i = alloca ptr, align 8
  %length.addr.i = alloca i64, align 8
  %retval = alloca %"class.llvh::StringRef", align 8
  %this.addr = alloca ptr, align 8
  store ptr %this, ptr %this.addr, align 8
  %this1 = load ptr, ptr %this.addr, align 8
  %range_ = getelementptr inbounds %"class.hermes::parser::StoredComment", ptr %this1, i32 0, i32 1
  %Start = getelementptr inbounds %"class.llvh::SMRange", ptr %range_, i32 0, i32 0
  %call = call noundef ptr @_ZNK4llvh5SMLoc10getPointerEv(ptr noundef nonnull align 8 dereferenceable(8) %Start)
  %range_2 = getelementptr inbounds %"class.hermes::parser::StoredComment", ptr %this1, i32 0, i32 1
  %End = getelementptr inbounds %"class.llvh::SMRange", ptr %range_2, i32 0, i32 1
  %call3 = call noundef ptr @_ZNK4llvh5SMLoc10getPointerEv(ptr noundef nonnull align 8 dereferenceable(8) %End)
  %range_4 = getelementptr inbounds %"class.hermes::parser::StoredComment", ptr %this1, i32 0, i32 1
  %Start5 = getelementptr inbounds %"class.llvh::SMRange", ptr %range_4, i32 0, i32 0
  %call6 = call noundef ptr @_ZNK4llvh5SMLoc10getPointerEv(ptr noundef nonnull align 8 dereferenceable(8) %Start5)
  %sub.ptr.lhs.cast = ptrtoint ptr %call3 to i64
  %sub.ptr.rhs.cast = ptrtoint ptr %call6 to i64
  %sub.ptr.sub = sub i64 %sub.ptr.lhs.cast, %sub.ptr.rhs.cast
  store ptr %retval, ptr %this.addr.i, align 8
  store ptr %call, ptr %data.addr.i, align 8
  store i64 %sub.ptr.sub, ptr %length.addr.i, align 8
  %this1.i = load ptr, ptr %this.addr.i, align 8
  %0 = load ptr, ptr %data.addr.i, align 8
  store ptr %0, ptr %this1.i, align 8
  %Length.i = getelementptr inbounds %"class.llvh::StringRef", ptr %this1.i, i32 0, i32 1
  %1 = load i64, ptr %length.addr.i, align 8
  store i64 %1, ptr %Length.i, align 8
  %2 = load { ptr, i64 }, ptr %retval, align 8
  ret { ptr, i64 } %2
}

; Function Attrs: mustprogress nounwind uwtable
define linkonce_odr hidden noundef ptr @_ZNK4llvh8ArrayRefIN6hermes6parser13StoredCommentEE3endEv(ptr noundef nonnull align 8 dereferenceable(16) %this) #0 comdat align 2 {
entry:
  %this.addr = alloca ptr, align 8
  store ptr %this, ptr %this.addr, align 8
  %this1 = load ptr, ptr %this.addr, align 8
  %Data = getelementptr inbounds %"class.llvh::ArrayRef", ptr %this1, i32 0, i32 0
  %0 = load ptr, ptr %Data, align 8
  %Length = getelementptr inbounds %"class.llvh::ArrayRef", ptr %this1, i32 0, i32 1
  %1 = load i64, ptr %Length, align 8
  %add.ptr = getelementptr inbounds %"class.hermes::parser::StoredComment", ptr %0, i64 %1
  ret ptr %add.ptr
}

; Function Attrs: mustprogress nounwind uwtable
define linkonce_odr hidden noundef ptr @_ZNK4llvh8ArrayRefIN6hermes6parser13StoredCommentEE5beginEv(ptr noundef nonnull align 8 dereferenceable(16) %this) #0 comdat align 2 {
entry:
  %this.addr = alloca ptr, align 8
  store ptr %this, ptr %this.addr, align 8
  %this1 = load ptr, ptr %this.addr, align 8
  %Data = getelementptr inbounds %"class.llvh::ArrayRef", ptr %this1, i32 0, i32 0
  %0 = load ptr, ptr %Data, align 8
  ret ptr %0
}

; Function Attrs: mustprogress nounwind uwtable
define hidden void @_ZN6hermes6parser11getDocBlockB5cxx11EN4llvh8ArrayRefINS0_13StoredCommentEEE(ptr noalias sret(%"class.std::__cxx11::basic_string") align 8 %agg.result, ptr %comments.coerce0, i64 %comments.coerce1) #0 {
entry:
  %result.ptr = alloca ptr, align 8
  %comments = alloca %"class.llvh::ArrayRef", align 8
  %nrvo = alloca i1, align 1
  %__range2 = alloca ptr, align 8
  %__begin2 = alloca ptr, align 8
  %__end2 = alloca ptr, align 8
  %comment = alloca ptr, align 8
  %agg.tmp = alloca %"class.llvh::StringRef", align 8
  store ptr %agg.result, ptr %result.ptr, align 8
  %0 = getelementptr inbounds { ptr, i64 }, ptr %comments, i32 0, i32 0
  store ptr %comments.coerce0, ptr %0, align 8
  %1 = getelementptr inbounds { ptr, i64 }, ptr %comments, i32 0, i32 1
  store i64 %comments.coerce1, ptr %1, align 8
  store i1 false, ptr %nrvo, align 1
  call void @_ZNSt7__cxx1112basic_stringIcSt11char_traitsIcESaIcEEC1Ev(ptr noundef nonnull align 8 dereferenceable(32) %agg.result) #7
  store ptr %comments, ptr %__range2, align 8
  %2 = load ptr, ptr %__range2, align 8
  %call = call noundef ptr @_ZNK4llvh8ArrayRefIN6hermes6parser13StoredCommentEE5beginEv(ptr noundef nonnull align 8 dereferenceable(16) %2)
  store ptr %call, ptr %__begin2, align 8
  %3 = load ptr, ptr %__range2, align 8
  %call1 = call noundef ptr @_ZNK4llvh8ArrayRefIN6hermes6parser13StoredCommentEE3endEv(ptr noundef nonnull align 8 dereferenceable(16) %3)
  store ptr %call1, ptr %__end2, align 8
  br label %for.cond

for.cond:                                         ; preds = %for.inc, %entry
  %4 = load ptr, ptr %__begin2, align 8
  %5 = load ptr, ptr %__end2, align 8
  %cmp = icmp ne ptr %4, %5
  br i1 %cmp, label %for.body, label %for.end

for.body:                                         ; preds = %for.cond
  %6 = load ptr, ptr %__begin2, align 8
  store ptr %6, ptr %comment, align 8
  %7 = load ptr, ptr %comment, align 8
  %call2 = call { ptr, i64 } @_ZNK6hermes6parser13StoredComment13getFullStringEv(ptr noundef nonnull align 8 dereferenceable(24) %7)
  %8 = getelementptr inbounds { ptr, i64 }, ptr %agg.tmp, i32 0, i32 0
  %9 = extractvalue { ptr, i64 } %call2, 0
  store ptr %9, ptr %8, align 8
  %10 = getelementptr inbounds { ptr, i64 }, ptr %agg.tmp, i32 0, i32 1
  %11 = extractvalue { ptr, i64 } %call2, 1
  store i64 %11, ptr %10, align 8
  %12 = getelementptr inbounds { ptr, i64 }, ptr %agg.tmp, i32 0, i32 0
  %13 = load ptr, ptr %12, align 8
  %14 = getelementptr inbounds { ptr, i64 }, ptr %agg.tmp, i32 0, i32 1
  %15 = load i64, ptr %14, align 8
  %call3 = call noundef nonnull align 8 dereferenceable(32) ptr @_ZN4llvhpLERNSt7__cxx1112basic_stringIcSt11char_traitsIcESaIcEEENS_9StringRefE(ptr noundef nonnull align 8 dereferenceable(32) %agg.result, ptr %13, i64 %15)
  call void @_ZNSt7__cxx1112basic_stringIcSt11char_traitsIcESaIcEE9push_backEc(ptr noundef nonnull align 8 dereferenceable(32) %agg.result, i8 noundef signext 10)
  br label %for.inc

for.inc:                                          ; preds = %for.body
  %16 = load ptr, ptr %__begin2, align 8
  %incdec.ptr = getelementptr inbounds %"class.hermes::parser::StoredComment", ptr %16, i32 1
  store ptr %incdec.ptr, ptr %__begin2, align 8
  br label %for.cond

for.end:                                          ; preds = %for.cond
  store i1 true, ptr %nrvo, align 1
  %nrvo.val = load i1, ptr %nrvo, align 1
  br i1 %nrvo.val, label %nrvo.skipdtor, label %nrvo.unused

nrvo.unused:                                      ; preds = %for.end
  call void @_ZNSt7__cxx1112basic_stringIcSt11char_traitsIcESaIcEED1Ev(ptr noundef nonnull align 8 dereferenceable(32) %agg.result) #7
  br label %nrvo.skipdtor

nrvo.skipdtor:                                    ; preds = %nrvo.unused, %for.end
  ret void
}