; Function Attrs: mustprogress nounwind uwtable
define hidden void @_ZN6hermes6parser11getDocBlockB5cxx11EN4llvh8ArrayRefINS0_13StoredCommentEEE(ptr noalias nonnull sret(%"class.std::__cxx11::basic_string") align 8 %agg.result, ptr readonly %comments.coerce0, i64 %comments.coerce1) local_unnamed_addr #0 {
entry:
  tail call void @_ZNSt7__cxx1112basic_stringIcSt11char_traitsIcESaIcEEC1Ev(ptr noundef nonnull align 8 dereferenceable(32) %agg.result) #7
  %add.ptr.i = getelementptr inbounds %"class.hermes::parser::StoredComment", ptr %comments.coerce0, i64 %comments.coerce1
  %cmp.not5 = icmp eq i64 %comments.coerce1, 0
  br i1 %cmp.not5, label %nrvo.skipdtor, label %for.body

for.body:                                         ; preds = %entry, %for.body
  %__begin2.06 = phi ptr [ %incdec.ptr, %for.body ], [ %comments.coerce0, %entry ]
  %range_.i = getelementptr inbounds nuw i8, ptr %__begin2.06, i64 8
  %0 = load ptr, ptr %range_.i, align 8
  %End.i = getelementptr inbounds nuw i8, ptr %__begin2.06, i64 16
  %1 = load ptr, ptr %End.i, align 8
  %sub.ptr.lhs.cast.i = ptrtoint ptr %1 to i64
  %sub.ptr.rhs.cast.i = ptrtoint ptr %0 to i64
  %sub.ptr.sub.i = sub i64 %sub.ptr.lhs.cast.i, %sub.ptr.rhs.cast.i
  %call2.i = tail call noundef nonnull align 8 dereferenceable(32) ptr @_ZNSt7__cxx1112basic_stringIcSt11char_traitsIcESaIcEE6appendEPKcm(ptr noundef nonnull align 8 dereferenceable(32) %agg.result, ptr noundef %0, i64 noundef %sub.ptr.sub.i) #7
  tail call void @_ZNSt7__cxx1112basic_stringIcSt11char_traitsIcESaIcEE9push_backEc(ptr noundef nonnull align 8 dereferenceable(32) %agg.result, i8 noundef signext 10) #7
  %incdec.ptr = getelementptr inbounds nuw i8, ptr %__begin2.06, i64 24
  %cmp.not = icmp eq ptr %incdec.ptr, %add.ptr.i
  br i1 %cmp.not, label %nrvo.skipdtor, label %for.body

nrvo.skipdtor:                                    ; preds = %for.body, %entry
  ret void
}